; ModuleID = '2/1271.c'
source_filename = "2/1271.c"
target datalayout = "e-m:e-p270:32:32-p271:32:32-p272:64:64-i64:64-f80:128-n8:16:32:64-S128"
target triple = "x86_64-pc-linux-gnu"

%struct.book = type { [26 x i8], i32 }

@.str = private unnamed_addr constant [3 x i8] c"%d\00", align 1
@.str.1 = private unnamed_addr constant [6 x i8] c"%d %s\00", align 1
@a = common dso_local global [1000 x %struct.book] zeroinitializer, align 16
@.str.2 = private unnamed_addr constant [7 x i8] c"%c\0A%d\0A\00", align 1
@.str.3 = private unnamed_addr constant [4 x i8] c"%d\0A\00", align 1

; Function Attrs: noinline nounwind uwtable
define dso_local void @main() #0 {
  %1 = alloca i32, align 4
  %2 = alloca i32, align 4
  %3 = alloca i32, align 4
  %4 = alloca [26 x i32], align 16
  %5 = alloca i32, align 4
  %6 = alloca i32, align 4
  %7 = bitcast [26 x i32]* %4 to i8*
  call void @llvm.memset.p0i8.i64(i8* align 16 %7, i8 0, i64 104, i1 false)
  store i32 0, i32* %5, align 4
  %8 = call i32 (i8*, ...) @__isoc99_scanf(i8* getelementptr inbounds ([3 x i8], [3 x i8]* @.str, i64 0, i64 0), i32* %1)
  store i32 0, i32* %2, align 4
  br label %9

9:                                                ; preds = %24, %0
  %10 = load i32, i32* %2, align 4
  %11 = load i32, i32* %1, align 4
  %12 = icmp slt i32 %10, %11
  br i1 %12, label %13, label %27

13:                                               ; preds = %9
  %14 = load i32, i32* %2, align 4
  %15 = sext i32 %14 to i64
  %16 = getelementptr inbounds [1000 x %struct.book], [1000 x %struct.book]* @a, i64 0, i64 %15
  %17 = getelementptr inbounds %struct.book, %struct.book* %16, i32 0, i32 1
  %18 = load i32, i32* %2, align 4
  %19 = sext i32 %18 to i64
  %20 = getelementptr inbounds [1000 x %struct.book], [1000 x %struct.book]* @a, i64 0, i64 %19
  %21 = getelementptr inbounds %struct.book, %struct.book* %20, i32 0, i32 0
  %22 = getelementptr inbounds [26 x i8], [26 x i8]* %21, i64 0, i64 0
  %23 = call i32 (i8*, ...) @__isoc99_scanf(i8* getelementptr inbounds ([6 x i8], [6 x i8]* @.str.1, i64 0, i64 0), i32* %17, i8* %22)
  br label %24

24:                                               ; preds = %13
  %25 = load i32, i32* %2, align 4
  %26 = add nsw i32 %25, 1
  store i32 %26, i32* %2, align 4
  br label %9

27:                                               ; preds = %9
  store i32 0, i32* %2, align 4
  br label %28

28:                                               ; preds = %63, %27
  %29 = load i32, i32* %2, align 4
  %30 = load i32, i32* %1, align 4
  %31 = icmp slt i32 %29, %30
  br i1 %31, label %32, label %66

32:                                               ; preds = %28
  store i32 0, i32* %3, align 4
  br label %33

33:                                               ; preds = %59, %32
  %34 = load i32, i32* %2, align 4
  %35 = sext i32 %34 to i64
  %36 = getelementptr inbounds [1000 x %struct.book], [1000 x %struct.book]* @a, i64 0, i64 %35
  %37 = getelementptr inbounds %struct.book, %struct.book* %36, i32 0, i32 0
  %38 = load i32, i32* %3, align 4
  %39 = sext i32 %38 to i64
  %40 = getelementptr inbounds [26 x i8], [26 x i8]* %37, i64 0, i64 %39
  %41 = load i8, i8* %40, align 1
  %42 = sext i8 %41 to i32
  %43 = icmp ne i32 %42, 0
  br i1 %43, label %44, label %62

44:                                               ; preds = %33
  %45 = load i32, i32* %2, align 4
  %46 = sext i32 %45 to i64
  %47 = getelementptr inbounds [1000 x %struct.book], [1000 x %struct.book]* @a, i64 0, i64 %46
  %48 = getelementptr inbounds %struct.book, %struct.book* %47, i32 0, i32 0
  %49 = load i32, i32* %3, align 4
  %50 = sext i32 %49 to i64
  %51 = getelementptr inbounds [26 x i8], [26 x i8]* %48, i64 0, i64 %50
  %52 = load i8, i8* %51, align 1
  %53 = sext i8 %52 to i32
  %54 = sub nsw i32 %53, 65
  %55 = sext i32 %54 to i64
  %56 = getelementptr inbounds [26 x i32], [26 x i32]* %4, i64 0, i64 %55
  %57 = load i32, i32* %56, align 4
  %58 = add nsw i32 %57, 1
  store i32 %58, i32* %56, align 4
  br label %59

59:                                               ; preds = %44
  %60 = load i32, i32* %3, align 4
  %61 = add nsw i32 %60, 1
  store i32 %61, i32* %3, align 4
  br label %33

62:                                               ; preds = %33
  br label %63

63:                                               ; preds = %62
  %64 = load i32, i32* %2, align 4
  %65 = add nsw i32 %64, 1
  store i32 %65, i32* %2, align 4
  br label %28

66:                                               ; preds = %28
  store i32 0, i32* %2, align 4
  br label %67

67:                                               ; preds = %83, %66
  %68 = load i32, i32* %2, align 4
  %69 = icmp slt i32 %68, 26
  br i1 %69, label %70, label %86

70:                                               ; preds = %67
  %71 = load i32, i32* %5, align 4
  %72 = load i32, i32* %2, align 4
  %73 = sext i32 %72 to i64
  %74 = getelementptr inbounds [26 x i32], [26 x i32]* %4, i64 0, i64 %73
  %75 = load i32, i32* %74, align 4
  %76 = icmp slt i32 %71, %75
  br i1 %76, label %77, label %82

77:                                               ; preds = %70
  %78 = load i32, i32* %2, align 4
  %79 = sext i32 %78 to i64
  %80 = getelementptr inbounds [26 x i32], [26 x i32]* %4, i64 0, i64 %79
  %81 = load i32, i32* %80, align 4
  store i32 %81, i32* %5, align 4
  br label %82

82:                                               ; preds = %77, %70
  br label %83

83:                                               ; preds = %82
  %84 = load i32, i32* %2, align 4
  %85 = add nsw i32 %84, 1
  store i32 %85, i32* %2, align 4
  br label %67

86:                                               ; preds = %67
  store i32 0, i32* %2, align 4
  br label %87

87:                                               ; preds = %100, %86
  %88 = load i32, i32* %2, align 4
  %89 = icmp slt i32 %88, 26
  br i1 %89, label %90, label %103

90:                                               ; preds = %87
  %91 = load i32, i32* %5, align 4
  %92 = load i32, i32* %2, align 4
  %93 = sext i32 %92 to i64
  %94 = getelementptr inbounds [26 x i32], [26 x i32]* %4, i64 0, i64 %93
  %95 = load i32, i32* %94, align 4
  %96 = icmp eq i32 %91, %95
  br i1 %96, label %97, label %99

97:                                               ; preds = %90
  %98 = load i32, i32* %2, align 4
  store i32 %98, i32* %6, align 4
  br label %103

99:                                               ; preds = %90
  br label %100

100:                                              ; preds = %99
  %101 = load i32, i32* %2, align 4
  %102 = add nsw i32 %101, 1
  store i32 %102, i32* %2, align 4
  br label %87

103:                                              ; preds = %97, %87
  %104 = load i32, i32* %6, align 4
  %105 = add nsw i32 %104, 65
  %106 = load i32, i32* %6, align 4
  %107 = sext i32 %106 to i64
  %108 = getelementptr inbounds [26 x i32], [26 x i32]* %4, i64 0, i64 %107
  %109 = load i32, i32* %108, align 4
  %110 = call i32 (i8*, ...) @printf(i8* getelementptr inbounds ([7 x i8], [7 x i8]* @.str.2, i64 0, i64 0), i32 %105, i32 %109)
  store i32 0, i32* %2, align 4
  br label %111

111:                                              ; preds = %152, %103
  %112 = load i32, i32* %2, align 4
  %113 = load i32, i32* %1, align 4
  %114 = icmp slt i32 %112, %113
  br i1 %114, label %115, label %155

115:                                              ; preds = %111
  store i32 0, i32* %3, align 4
  br label %116

116:                                              ; preds = %148, %115
  %117 = load i32, i32* %2, align 4
  %118 = sext i32 %117 to i64
  %119 = getelementptr inbounds [1000 x %struct.book], [1000 x %struct.book]* @a, i64 0, i64 %118
  %120 = getelementptr inbounds %struct.book, %struct.book* %119, i32 0, i32 0
  %121 = load i32, i32* %3, align 4
  %122 = sext i32 %121 to i64
  %123 = getelementptr inbounds [26 x i8], [26 x i8]* %120, i64 0, i64 %122
  %124 = load i8, i8* %123, align 1
  %125 = sext i8 %124 to i32
  %126 = icmp ne i32 %125, 0
  br i1 %126, label %127, label %151

127:                                              ; preds = %116
  %128 = load i32, i32* %2, align 4
  %129 = sext i32 %128 to i64
  %130 = getelementptr inbounds [1000 x %struct.book], [1000 x %struct.book]* @a, i64 0, i64 %129
  %131 = getelementptr inbounds %struct.book, %struct.book* %130, i32 0, i32 0
  %132 = load i32, i32* %3, align 4
  %133 = sext i32 %132 to i64
  %134 = getelementptr inbounds [26 x i8], [26 x i8]* %131, i64 0, i64 %133
  %135 = load i8, i8* %134, align 1
  %136 = sext i8 %135 to i32
  %137 = load i32, i32* %6, align 4
  %138 = add nsw i32 %137, 65
  %139 = icmp eq i32 %136, %138
  br i1 %139, label %140, label %147

140:                                              ; preds = %127
  %141 = load i32, i32* %2, align 4
  %142 = sext i32 %141 to i64
  %143 = getelementptr inbounds [1000 x %struct.book], [1000 x %struct.book]* @a, i64 0, i64 %142
  %144 = getelementptr inbounds %struct.book, %struct.book* %143, i32 0, i32 1
  %145 = load i32, i32* %144, align 4
  %146 = call i32 (i8*, ...) @printf(i8* getelementptr inbounds ([4 x i8], [4 x i8]* @.str.3, i64 0, i64 0), i32 %145)
  br label %151

147:                                              ; preds = %127
  br label %148

148:                                              ; preds = %147
  %149 = load i32, i32* %3, align 4
  %150 = add nsw i32 %149, 1
  store i32 %150, i32* %3, align 4
  br label %116

151:                                              ; preds = %140, %116
  br label %152

152:                                              ; preds = %151
  %153 = load i32, i32* %2, align 4
  %154 = add nsw i32 %153, 1
  store i32 %154, i32* %2, align 4
  br label %111

155:                                              ; preds = %111
  ret void
}

; Function Attrs: argmemonly nounwind willreturn
declare void @llvm.memset.p0i8.i64(i8* nocapture writeonly, i8, i64, i1 immarg) #1

declare dso_local i32 @__isoc99_scanf(i8*, ...) #2

declare dso_local i32 @printf(i8*, ...) #2


!llvm.module.flags = !{!0}
!llvm.ident = !{!1}

!0 = !{i32 1, !"wchar_size", i32 4}
!1 = !{!"clang version 10.0.0-4ubuntu1 "}
